target datalayout = "e-m:e-p270:32:32-p271:32:32-p272:64:64-i64:64-i128:128-f80:128-n8:16:32:64-S128"
target triple = "x86_64-pc-linux-gnu"

%struct.DWTContext = type { ptr, ptr, i32, i32, i32, i32, i32, ptr, %union.anon, %union.anon, ptr, ptr, ptr, ptr, [8 x %struct.DWTCompose] }
%union.anon = type { ptr }
%struct.DWTCompose = type { [8 x ptr], i32 }

; Function Attrs: alwaysinline nounwind willreturn memory(none) uwtable
define internal i32 @av_clip_c(i32 noundef %0, i32 noundef %1, i32 noundef %2) #3 {
  %4 = alloca i32, align 4
  %5 = alloca i32, align 4
  %6 = alloca i32, align 4
  %7 = alloca i32, align 4
  store i32 %0, ptr %5, align 4, !tbaa !11
  store i32 %1, ptr %6, align 4, !tbaa !11
  store i32 %2, ptr %7, align 4, !tbaa !11
  %8 = load i32, ptr %5, align 4, !tbaa !11
  %9 = load i32, ptr %6, align 4, !tbaa !11
  %10 = icmp slt i32 %8, %9
  br i1 %10, label %11, label %13

11:                                               ; preds = %3
  %12 = load i32, ptr %6, align 4, !tbaa !11
  store i32 %12, ptr %4, align 4
  br label %21

13:                                               ; preds = %3
  %14 = load i32, ptr %5, align 4, !tbaa !11
  %15 = load i32, ptr %7, align 4, !tbaa !11
  %16 = icmp sgt i32 %14, %15
  br i1 %16, label %17, label %19

17:                                               ; preds = %13
  %18 = load i32, ptr %7, align 4, !tbaa !11
  store i32 %18, ptr %4, align 4
  br label %21

19:                                               ; preds = %13
  %20 = load i32, ptr %5, align 4, !tbaa !11
  store i32 %20, ptr %4, align 4
  br label %21

21:                                               ; preds = %19, %17, %11
  %22 = load i32, ptr %4, align 4
  ret i32 %22
}

; Function Attrs: nounwind uwtable
define internal void @spatial_compose_fidelity_12bit(ptr noundef %0, i32 noundef %1, i32 noundef %2, i32 noundef %3, i32 noundef %4) #0 {
  %6 = alloca ptr, align 8
  %7 = alloca i32, align 4
  %8 = alloca i32, align 4
  %9 = alloca i32, align 4
  %10 = alloca i32, align 4
  %11 = alloca ptr, align 8
  %12 = alloca ptr, align 8
  %13 = alloca i32, align 4
  %14 = alloca i32, align 4
  %15 = alloca [8 x ptr], align 16
  store ptr %0, ptr %6, align 8, !tbaa !4
  store i32 %1, ptr %7, align 4, !tbaa !11
  store i32 %2, ptr %8, align 4, !tbaa !11
  store i32 %3, ptr %9, align 4, !tbaa !11
  store i32 %4, ptr %10, align 4, !tbaa !11
  call void @llvm.lifetime.start.p0(i64 8, ptr %11) #5
  %16 = load ptr, ptr %6, align 8, !tbaa !4
  %17 = getelementptr inbounds nuw %struct.DWTContext, ptr %16, i32 0, i32 8
  %18 = load ptr, ptr %17, align 8, !tbaa !32
  store ptr %18, ptr %11, align 8, !tbaa !45
  call void @llvm.lifetime.start.p0(i64 8, ptr %12) #5
  %19 = load ptr, ptr %6, align 8, !tbaa !4
  %20 = getelementptr inbounds nuw %struct.DWTContext, ptr %19, i32 0, i32 9
  %21 = load ptr, ptr %20, align 8, !tbaa !32
  store ptr %21, ptr %12, align 8, !tbaa !45
  call void @llvm.lifetime.start.p0(i64 4, ptr %13) #5
  call void @llvm.lifetime.start.p0(i64 4, ptr %14) #5
  call void @llvm.lifetime.start.p0(i64 64, ptr %15) #5
  store i32 1, ptr %14, align 4, !tbaa !11
  br label %22

22:                                               ; preds = %64, %5
  %23 = load i32, ptr %14, align 4, !tbaa !11
  %24 = load i32, ptr %9, align 4, !tbaa !11
  %25 = icmp slt i32 %23, %24
  br i1 %25, label %26, label %67

26:                                               ; preds = %22
  store i32 0, ptr %13, align 4, !tbaa !11
  br label %27

27:                                               ; preds = %49, %26
  %28 = load i32, ptr %13, align 4, !tbaa !11
  %29 = icmp slt i32 %28, 8
  br i1 %29, label %30, label %52

30:                                               ; preds = %27
  %31 = load ptr, ptr %6, align 8, !tbaa !4
  %32 = getelementptr inbounds nuw %struct.DWTContext, ptr %31, i32 0, i32 0
  %33 = load ptr, ptr %32, align 8, !tbaa !16
  %34 = load i32, ptr %14, align 4, !tbaa !11
  %35 = sub nsw i32 %34, 7
  %36 = load i32, ptr %13, align 4, !tbaa !11
  %37 = mul nsw i32 2, %36
  %38 = add nsw i32 %35, %37
  %39 = load i32, ptr %9, align 4, !tbaa !11
  %40 = sub nsw i32 %39, 2
  %41 = call i32 @av_clip_c(i32 noundef %38, i32 noundef 0, i32 noundef %40) #6
  %42 = load i32, ptr %10, align 4, !tbaa !11
  %43 = mul nsw i32 %41, %42
  %44 = sext i32 %43 to i64
  %45 = getelementptr inbounds i8, ptr %33, i64 %44
  %46 = load i32, ptr %13, align 4, !tbaa !11
  %47 = sext i32 %46 to i64
  %48 = getelementptr inbounds [8 x ptr], ptr %15, i64 0, i64 %47
  store ptr %45, ptr %48, align 8, !tbaa !44
  br label %49

49:                                               ; preds = %30
  %50 = load i32, ptr %13, align 4, !tbaa !11
  %51 = add nsw i32 %50, 1
  store i32 %51, ptr %13, align 4, !tbaa !11
  br label %27, !llvm.loop !140

52:                                               ; preds = %27
  %53 = load ptr, ptr %12, align 8, !tbaa !45
  %54 = load ptr, ptr %6, align 8, !tbaa !4
  %55 = getelementptr inbounds nuw %struct.DWTContext, ptr %54, i32 0, i32 0
  %56 = load ptr, ptr %55, align 8, !tbaa !16
  %57 = load i32, ptr %14, align 4, !tbaa !11
  %58 = load i32, ptr %10, align 4, !tbaa !11
  %59 = mul nsw i32 %57, %58
  %60 = sext i32 %59 to i64
  %61 = getelementptr inbounds i8, ptr %56, i64 %60
  %62 = getelementptr inbounds [8 x ptr], ptr %15, i64 0, i64 0
  %63 = load i32, ptr %8, align 4, !tbaa !11
  call void %53(ptr noundef %61, ptr noundef %62, i32 noundef %63)
  br label %64

64:                                               ; preds = %52
  %65 = load i32, ptr %14, align 4, !tbaa !11
  %66 = add nsw i32 %65, 2
  store i32 %66, ptr %14, align 4, !tbaa !11
  br label %22, !llvm.loop !141

67:                                               ; preds = %22
  store i32 0, ptr %14, align 4, !tbaa !11
  br label %68

68:                                               ; preds = %110, %67
  %69 = load i32, ptr %14, align 4, !tbaa !11
  %70 = load i32, ptr %9, align 4, !tbaa !11
  %71 = icmp slt i32 %69, %70
  br i1 %71, label %72, label %113

72:                                               ; preds = %68
  store i32 0, ptr %13, align 4, !tbaa !11
  br label %73

73:                                               ; preds = %95, %72
  %74 = load i32, ptr %13, align 4, !tbaa !11
  %75 = icmp slt i32 %74, 8
  br i1 %75, label %76, label %98

76:                                               ; preds = %73
  %77 = load ptr, ptr %6, align 8, !tbaa !4
  %78 = getelementptr inbounds nuw %struct.DWTContext, ptr %77, i32 0, i32 0
  %79 = load ptr, ptr %78, align 8, !tbaa !16
  %80 = load i32, ptr %14, align 4, !tbaa !11
  %81 = sub nsw i32 %80, 7
  %82 = load i32, ptr %13, align 4, !tbaa !11
  %83 = mul nsw i32 2, %82
  %84 = add nsw i32 %81, %83
  %85 = load i32, ptr %9, align 4, !tbaa !11
  %86 = sub nsw i32 %85, 1
  %87 = call i32 @av_clip_c(i32 noundef %84, i32 noundef 1, i32 noundef %86) #6
  %88 = load i32, ptr %10, align 4, !tbaa !11
  %89 = mul nsw i32 %87, %88
  %90 = sext i32 %89 to i64
  %91 = getelementptr inbounds i8, ptr %79, i64 %90
  %92 = load i32, ptr %13, align 4, !tbaa !11
  %93 = sext i32 %92 to i64
  %94 = getelementptr inbounds [8 x ptr], ptr %15, i64 0, i64 %93
  store ptr %91, ptr %94, align 8, !tbaa !44
  br label %95

95:                                               ; preds = %76
  %96 = load i32, ptr %13, align 4, !tbaa !11
  %97 = add nsw i32 %96, 1
  store i32 %97, ptr %13, align 4, !tbaa !11
  br label %73, !llvm.loop !142

98:                                               ; preds = %73
  %99 = load ptr, ptr %11, align 8, !tbaa !45
  %100 = load ptr, ptr %6, align 8, !tbaa !4
  %101 = getelementptr inbounds nuw %struct.DWTContext, ptr %100, i32 0, i32 0
  %102 = load ptr, ptr %101, align 8, !tbaa !16
  %103 = load i32, ptr %14, align 4, !tbaa !11
  %104 = load i32, ptr %10, align 4, !tbaa !11
  %105 = mul nsw i32 %103, %104
  %106 = sext i32 %105 to i64
  %107 = getelementptr inbounds i8, ptr %102, i64 %106
  %108 = getelementptr inbounds [8 x ptr], ptr %15, i64 0, i64 0
  %109 = load i32, ptr %8, align 4, !tbaa !11
  call void %99(ptr noundef %107, ptr noundef %108, i32 noundef %109)
  br label %110

110:                                              ; preds = %98
  %111 = load i32, ptr %14, align 4, !tbaa !11
  %112 = add nsw i32 %111, 2
  store i32 %112, ptr %14, align 4, !tbaa !11
  br label %68, !llvm.loop !143

113:                                              ; preds = %68
  store i32 0, ptr %14, align 4, !tbaa !11
  br label %114

114:                                              ; preds = %134, %113
  %115 = load i32, ptr %14, align 4, !tbaa !11
  %116 = load i32, ptr %9, align 4, !tbaa !11
  %117 = icmp slt i32 %115, %116
  br i1 %117, label %118, label %137

118:                                              ; preds = %114
  %119 = load ptr, ptr %6, align 8, !tbaa !4
  %120 = getelementptr inbounds nuw %struct.DWTContext, ptr %119, i32 0, i32 13
  %121 = load ptr, ptr %120, align 8, !tbaa !33
  %122 = load ptr, ptr %6, align 8, !tbaa !4
  %123 = getelementptr inbounds nuw %struct.DWTContext, ptr %122, i32 0, i32 0
  %124 = load ptr, ptr %123, align 8, !tbaa !16
  %125 = load i32, ptr %14, align 4, !tbaa !11
  %126 = load i32, ptr %10, align 4, !tbaa !11
  %127 = mul nsw i32 %125, %126
  %128 = sext i32 %127 to i64
  %129 = getelementptr inbounds i8, ptr %124, i64 %128
  %130 = load ptr, ptr %6, align 8, !tbaa !4
  %131 = getelementptr inbounds nuw %struct.DWTContext, ptr %130, i32 0, i32 1
  %132 = load ptr, ptr %131, align 8, !tbaa !25
  %133 = load i32, ptr %8, align 4, !tbaa !11
  call void %121(ptr noundef %129, ptr noundef %132, i32 noundef %133)
  br label %134

134:                                              ; preds = %118
  %135 = load i32, ptr %14, align 4, !tbaa !11
  %136 = add nsw i32 %135, 1
  store i32 %136, ptr %14, align 4, !tbaa !11
  br label %114, !llvm.loop !144

137:                                              ; preds = %114
  %138 = load i32, ptr %9, align 4, !tbaa !11
  %139 = add nsw i32 %138, 1
  %140 = load ptr, ptr %6, align 8, !tbaa !4
  %141 = getelementptr inbounds nuw %struct.DWTContext, ptr %140, i32 0, i32 14
  %142 = load i32, ptr %7, align 4, !tbaa !11
  %143 = sext i32 %142 to i64
  %144 = getelementptr inbounds [8 x %struct.DWTCompose], ptr %141, i64 0, i64 %143
  %145 = getelementptr inbounds nuw %struct.DWTCompose, ptr %144, i32 0, i32 1
  store i32 %139, ptr %145, align 8, !tbaa !27
  call void @llvm.lifetime.end.p0(i64 64, ptr %15) #5
  call void @llvm.lifetime.end.p0(i64 4, ptr %14) #5
  call void @llvm.lifetime.end.p0(i64 4, ptr %13) #5
  call void @llvm.lifetime.end.p0(i64 8, ptr %12) #5
  call void @llvm.lifetime.end.p0(i64 8, ptr %11) #5
  ret void
}